target datalayout = "e-m:e-p270:32:32-p271:32:32-p272:64:64-i64:64-i128:128-f80:128-n8:16:32:64-S128"
target triple = "x86_64-unknown-linux-gnu"

%"struct.std::atomic.59" = type { %"struct.std::__atomic_base.60" }
%"struct.std::__atomic_base.60" = type { i8 }
%"class.absl::lts_20230802::Status" = type { i64 }
%"struct.std::_Rb_tree_header" = type { %"struct.std::_Rb_tree_node_base", i64 }
%"struct.std::_Rb_tree_node_base" = type { i32, ptr, ptr, ptr }
%"class.grpc_core::Transport" = type { %"class.grpc_core::Orphanable" }
%"class.grpc_core::Orphanable" = type { ptr }
%"class.grpc_core::RefCount" = type { %"struct.std::atomic" }
%"struct.std::atomic" = type { %"struct.std::__atomic_base" }
%"struct.std::__atomic_base" = type { i64 }
%"class.absl::lts_20230802::Mutex" = type { %"struct.std::atomic" }
%"class.grpc_core::(anonymous namespace)::InprocServerTransport" = type { %"class.grpc_core::RefCounted.128", %"class.grpc_core::Transport", %"class.grpc_core::ServerTransport", %"struct.std::atomic.129", %"struct.std::atomic.59", [14 x i8], %"class.absl::lts_20230802::AnyInvocable", %"class.absl::lts_20230802::Status", %"class.absl::lts_20230802::Mutex", %"class.grpc_core::ConnectivityStateTracker", [8 x i8] }
%"class.grpc_core::RefCounted.128" = type { %"class.grpc_core::PolymorphicRefCount", %"class.grpc_core::RefCount" }
%"class.grpc_core::PolymorphicRefCount" = type { ptr }
%"class.grpc_core::ServerTransport" = type { ptr }
%"struct.std::atomic.129" = type { i8 }
%"class.absl::lts_20230802::AnyInvocable" = type { %"class.absl::lts_20230802::internal_any_invocable::Impl" }
%"class.absl::lts_20230802::internal_any_invocable::Impl" = type { %"class.absl::lts_20230802::internal_any_invocable::CoreImpl" }
%"class.absl::lts_20230802::internal_any_invocable::CoreImpl" = type { %"union.absl::lts_20230802::internal_any_invocable::TypeErasedState", ptr, ptr }
%"union.absl::lts_20230802::internal_any_invocable::TypeErasedState" = type { %struct.anon }
%struct.anon = type { ptr, i64 }
%"class.grpc_core::ConnectivityStateTracker" = type { ptr, %"struct.std::atomic.130", %"class.absl::lts_20230802::Status", %"class.std::map.131" }
%"struct.std::atomic.130" = type { i32 }
%"class.std::map.131" = type { %"class.std::_Rb_tree.132" }
%"class.std::_Rb_tree.132" = type { %"struct.std::_Rb_tree<grpc_core::ConnectivityStateWatcherInterface *, std::pair<grpc_core::ConnectivityStateWatcherInterface *const, std::unique_ptr<grpc_core::ConnectivityStateWatcherInterface, grpc_core::OrphanableDelete>>, std::_Select1st<std::pair<grpc_core::ConnectivityStateWatcherInterface *const, std::unique_ptr<grpc_core::ConnectivityStateWatcherInterface, grpc_core::OrphanableDelete>>>, std::less<grpc_core::ConnectivityStateWatcherInterface *>>::_Rb_tree_impl" }
%"struct.std::_Rb_tree<grpc_core::ConnectivityStateWatcherInterface *, std::pair<grpc_core::ConnectivityStateWatcherInterface *const, std::unique_ptr<grpc_core::ConnectivityStateWatcherInterface, grpc_core::OrphanableDelete>>, std::_Select1st<std::pair<grpc_core::ConnectivityStateWatcherInterface *const, std::unique_ptr<grpc_core::ConnectivityStateWatcherInterface, grpc_core::OrphanableDelete>>>, std::less<grpc_core::ConnectivityStateWatcherInterface *>>::_Rb_tree_impl" = type { %"struct.std::_Rb_tree_key_compare.136", %"struct.std::_Rb_tree_header" }
%"struct.std::_Rb_tree_key_compare.136" = type { %"struct.std::less.137" }
%"struct.std::less.137" = type { i8 }

; Function Attrs: mustprogress nounwind uwtable
define linkonce_odr void @_ZN4absl12lts_2023080222internal_any_invocable8CoreImplILb0ENS0_8StatusOrIN9grpc_core13CallInitiatorEEEJR19grpc_metadata_batchEED2Ev(ptr noundef nonnull align 16 dereferenceable(32) %this) unnamed_addr #5 comdat align 2 {
entry:
  %this.addr = alloca ptr, align 8
  store ptr %this, ptr %this.addr, align 8
  %this1 = load ptr, ptr %this.addr, align 8
  %manager_ = getelementptr inbounds %"class.absl::lts_20230802::internal_any_invocable::CoreImpl", ptr %this1, i32 0, i32 1
  %0 = load ptr, ptr %manager_, align 16
  %state_ = getelementptr inbounds %"class.absl::lts_20230802::internal_any_invocable::CoreImpl", ptr %this1, i32 0, i32 0
  %state_2 = getelementptr inbounds %"class.absl::lts_20230802::internal_any_invocable::CoreImpl", ptr %this1, i32 0, i32 0
  call void %0(i1 noundef zeroext true, ptr noundef %state_, ptr noundef %state_2) #3
  ret void
}

; Function Attrs: mustprogress nounwind uwtable
define linkonce_odr noundef zeroext i1 @_ZN4absl12lts_202308026Status9IsInlinedEm(i64 noundef %rep) #5 comdat align 2 {
entry:
  %rep.addr = alloca i64, align 8
  store i64 %rep, ptr %rep.addr, align 8
  %0 = load i64, ptr %rep.addr, align 8
  %and = and i64 %0, 1
  %cmp = icmp eq i64 %and, 0
  ret i1 %cmp
}

; Function Attrs: mustprogress nounwind uwtable
define linkonce_odr void @_ZN9grpc_core19PolymorphicRefCountD2Ev(ptr noundef nonnull align 8 dereferenceable(8) %this) unnamed_addr #5 comdat align 2 {
entry:
  %this.addr = alloca ptr, align 8
  store ptr %this, ptr %this.addr, align 8
  ret void
}

; Function Attrs: mustprogress nounwind uwtable
define linkonce_odr void @_ZN9grpc_core10OrphanableD2Ev(ptr noundef nonnull align 8 dereferenceable(8) %this) unnamed_addr #5 comdat align 2 {
entry:
  %this.addr = alloca ptr, align 8
  store ptr %this, ptr %this.addr, align 8
  ret void
}

; Function Attrs: mustprogress nounwind uwtable
define linkonce_odr void @_ZN4absl12lts_2023080222internal_any_invocable4ImplIKFNS0_8StatusOrIN9grpc_core13CallInitiatorEEER19grpc_metadata_batchEED2Ev(ptr noundef nonnull align 16 dereferenceable(32) %this) unnamed_addr #5 comdat align 2 {
entry:
  %this.addr = alloca ptr, align 8
  store ptr %this, ptr %this.addr, align 8
  %this1 = load ptr, ptr %this.addr, align 8
  call void @_ZN4absl12lts_2023080222internal_any_invocable8CoreImplILb0ENS0_8StatusOrIN9grpc_core13CallInitiatorEEEJR19grpc_metadata_batchEED2Ev(ptr noundef nonnull align 16 dereferenceable(32) %this1) #3
  ret void
}

; Function Attrs: mustprogress uwtable
define linkonce_odr void @_ZN4absl12lts_202308026Status5UnrefEm(i64 noundef %rep) #4 comdat align 2 {
entry:
  %rep.addr = alloca i64, align 8
  store i64 %rep, ptr %rep.addr, align 8
  %0 = load i64, ptr %rep.addr, align 8
  %call = call noundef zeroext i1 @_ZN4absl12lts_202308026Status9IsInlinedEm(i64 noundef %0)
  br i1 %call, label %if.end, label %if.then

if.then:                                          ; preds = %entry
  %1 = load i64, ptr %rep.addr, align 8
  call void @_ZN4absl12lts_202308026Status15UnrefNonInlinedEm(i64 noundef %1)
  br label %if.end

if.end:                                           ; preds = %if.then, %entry
  ret void
}

; Function Attrs: mustprogress nounwind uwtable
define internal void @_ZN9grpc_core10RefCountedINS_12_GLOBAL__N_121InprocServerTransportENS_19PolymorphicRefCountENS_11UnrefDeleteEED2Ev(ptr noundef nonnull align 8 dereferenceable(16) %this) unnamed_addr #5 align 2 {
entry:
  %this.addr = alloca ptr, align 8
  store ptr %this, ptr %this.addr, align 8
  %this1 = load ptr, ptr %this.addr, align 8
  call void @_ZN9grpc_core19PolymorphicRefCountD2Ev(ptr noundef nonnull align 8 dereferenceable(8) %this1) #3
  ret void
}

; Function Attrs: mustprogress nounwind uwtable
define linkonce_odr void @_ZN9grpc_core9TransportD2Ev(ptr noundef nonnull align 8 dereferenceable(8) %this) unnamed_addr #5 comdat align 2 {
entry:
  %this.addr = alloca ptr, align 8
  store ptr %this, ptr %this.addr, align 8
  %this1 = load ptr, ptr %this.addr, align 8
  call void @_ZN9grpc_core10OrphanableD2Ev(ptr noundef nonnull align 8 dereferenceable(8) %this1) #3
  ret void
}

; Function Attrs: mustprogress nounwind uwtable
define linkonce_odr void @_ZN4absl12lts_2023080212AnyInvocableIKFNS0_8StatusOrIN9grpc_core13CallInitiatorEEER19grpc_metadata_batchEED2Ev(ptr noundef nonnull align 16 dereferenceable(32) %this) unnamed_addr #5 comdat align 2 {
entry:
  %this.addr = alloca ptr, align 8
  store ptr %this, ptr %this.addr, align 8
  %this1 = load ptr, ptr %this.addr, align 8
  call void @_ZN4absl12lts_2023080222internal_any_invocable4ImplIKFNS0_8StatusOrIN9grpc_core13CallInitiatorEEER19grpc_metadata_batchEED2Ev(ptr noundef nonnull align 16 dereferenceable(32) %this1) #3
  ret void
}

; Function Attrs: mustprogress nounwind uwtable
define linkonce_odr void @_ZN4absl12lts_202308026StatusD2Ev(ptr noundef nonnull align 8 dereferenceable(8) %this) unnamed_addr #5 comdat align 2 personality ptr @__gxx_personality_v0 {
entry:
  %this.addr = alloca ptr, align 8
  store ptr %this, ptr %this.addr, align 8
  %this1 = load ptr, ptr %this.addr, align 8
  %rep_ = getelementptr inbounds %"class.absl::lts_20230802::Status", ptr %this1, i32 0, i32 0
  %0 = load i64, ptr %rep_, align 8
  invoke void @_ZN4absl12lts_202308026Status5UnrefEm(i64 noundef %0)
          to label %invoke.cont unwind label %terminate.lpad

invoke.cont:                                      ; preds = %entry
  ret void

terminate.lpad:                                   ; preds = %entry
  %1 = landingpad { ptr, i32 }
          catch ptr null
  %2 = extractvalue { ptr, i32 } %1, 0
  call void @__clang_call_terminate(ptr %2) #19
  unreachable
}

; Function Attrs: mustprogress nounwind uwtable
define internal void @_ZN9grpc_core12_GLOBAL__N_121InprocServerTransportD2Ev(ptr noundef nonnull align 16 dereferenceable(176) %this) unnamed_addr #5 align 2 {
entry:
  %this.addr = alloca ptr, align 8
  store ptr %this, ptr %this.addr, align 8
  %this1 = load ptr, ptr %this.addr, align 8
  %state_tracker_ = getelementptr inbounds %"class.grpc_core::(anonymous namespace)::InprocServerTransport", ptr %this1, i32 0, i32 9
  call void @_ZN9grpc_core24ConnectivityStateTrackerD1Ev(ptr noundef nonnull align 8 dereferenceable(72) %state_tracker_) #3
  %state_tracker_mu_ = getelementptr inbounds %"class.grpc_core::(anonymous namespace)::InprocServerTransport", ptr %this1, i32 0, i32 8
  call void @_ZN4absl12lts_202308025MutexD1Ev(ptr noundef nonnull align 8 dereferenceable(8) %state_tracker_mu_) #3
  %disconnect_error_ = getelementptr inbounds %"class.grpc_core::(anonymous namespace)::InprocServerTransport", ptr %this1, i32 0, i32 7
  call void @_ZN4absl12lts_202308026StatusD2Ev(ptr noundef nonnull align 8 dereferenceable(8) %disconnect_error_) #3
  %accept_ = getelementptr inbounds %"class.grpc_core::(anonymous namespace)::InprocServerTransport", ptr %this1, i32 0, i32 6
  call void @_ZN4absl12lts_2023080212AnyInvocableIKFNS0_8StatusOrIN9grpc_core13CallInitiatorEEER19grpc_metadata_batchEED2Ev(ptr noundef nonnull align 16 dereferenceable(32) %accept_) #3
  %0 = getelementptr inbounds i8, ptr %this1, i64 16
  call void @_ZN9grpc_core9TransportD2Ev(ptr noundef nonnull align 8 dereferenceable(8) %0) #3
  call void @_ZN9grpc_core10RefCountedINS_12_GLOBAL__N_121InprocServerTransportENS_19PolymorphicRefCountENS_11UnrefDeleteEED2Ev(ptr noundef nonnull align 8 dereferenceable(16) %this1) #3
  ret void
}

; Function Attrs: mustprogress nounwind uwtable
define internal void @_ZN9grpc_core12_GLOBAL__N_121InprocServerTransportD0Ev(ptr noundef nonnull align 16 dereferenceable(176) %this) unnamed_addr #5 align 2 {
entry:
  %this.addr = alloca ptr, align 8
  store ptr %this, ptr %this.addr, align 8
  %this1 = load ptr, ptr %this.addr, align 8
  call void @_ZN9grpc_core12_GLOBAL__N_121InprocServerTransportD2Ev(ptr noundef nonnull align 16 dereferenceable(176) %this1) #3
  call void @_ZdlPv(ptr noundef %this1) #21
  ret void
}