; Function Attrs: mustprogress nounwind uwtable
define internal void @_ZN9grpc_core12_GLOBAL__N_121InprocServerTransportD0Ev(ptr noundef nonnull align 16 dereferenceable(176) %this) unnamed_addr #7 align 2 personality ptr @__gxx_personality_v0 {
entry:
  %state_tracker_.i = getelementptr inbounds i8, ptr %this, i64 96
  tail call void @_ZN9grpc_core24ConnectivityStateTrackerD1Ev(ptr noundef nonnull align 8 dereferenceable(72) %state_tracker_.i) #22
  %state_tracker_mu_.i = getelementptr inbounds i8, ptr %this, i64 88
  tail call void @_ZN4absl12lts_202308025MutexD1Ev(ptr noundef nonnull align 8 dereferenceable(8) %state_tracker_mu_.i) #22
  %disconnect_error_.i = getelementptr inbounds i8, ptr %this, i64 80
  %0 = load i64, ptr %disconnect_error_.i, align 16
  %and.i.i.i.i = and i64 %0, 1
  %cmp.i.i.i.i = icmp eq i64 %and.i.i.i.i, 0
  br i1 %cmp.i.i.i.i, label %_ZN9grpc_core12_GLOBAL__N_121InprocServerTransportD2Ev.exit, label %if.then.i.i.i

if.then.i.i.i:                                    ; preds = %entry
  invoke void @_ZN4absl12lts_202308026Status15UnrefNonInlinedEm(i64 noundef %0)
          to label %_ZN9grpc_core12_GLOBAL__N_121InprocServerTransportD2Ev.exit unwind label %terminate.lpad.i.i

terminate.lpad.i.i:                               ; preds = %if.then.i.i.i
  %1 = landingpad { ptr, i32 }
          catch ptr null
  %2 = extractvalue { ptr, i32 } %1, 0
  tail call void @__clang_call_terminate(ptr %2) #26
  unreachable

_ZN9grpc_core12_GLOBAL__N_121InprocServerTransportD2Ev.exit: ; preds = %entry, %if.then.i.i.i
  %accept_.i = getelementptr inbounds i8, ptr %this, i64 48
  %manager_.i.i.i.i = getelementptr inbounds i8, ptr %this, i64 64
  %3 = load ptr, ptr %manager_.i.i.i.i, align 16
  tail call void %3(i1 noundef zeroext true, ptr noundef nonnull %accept_.i, ptr noundef nonnull %accept_.i) #22
  tail call void @_ZdlPv(ptr noundef nonnull %this) #25
  ret void
}